; Function Attrs: mustprogress nounwind uwtable
define internal void @_ZN4node12_GLOBAL__N_111FSEventWrap14GetInitializedERKN2v820FunctionCallbackInfoINS2_5ValueEEE(ptr nocapture noundef nonnull readonly align 8 dereferenceable(20) %args) #3 align 2 {
entry:
  %values_.i = getelementptr inbounds i8, ptr %args, i64 8
  %0 = load ptr, ptr %values_.i, align 8
  %add.ptr.i = getelementptr inbounds i8, ptr %0, i64 -8
  %1 = load i64, ptr %add.ptr.i, align 8
  %sub.i.i.i.i.i.i = add i64 %1, -1
  %2 = inttoptr i64 %sub.i.i.i.i.i.i to ptr
  %3 = load i64, ptr %2, align 8
  %sub.i17.i.i.i.i = add i64 %3, 11
  %4 = inttoptr i64 %sub.i17.i.i.i.i to ptr
  %5 = load i16, ptr %4, align 2
  %conv.i11.i.i.i.i = zext i16 %5 to i32
  %cmp.i.i.i.i = icmp eq i16 %5, 1040
  %sub.i.i.i.i = add nsw i32 %conv.i11.i.i.i.i, -1057
  %cmp1.i.i.i.i = icmp ult i32 %sub.i.i.i.i, 1002
  %6 = select i1 %cmp.i.i.i.i, i1 true, i1 %cmp1.i.i.i.i
  br i1 %6, label %if.then.i.i.i.i, label %if.end.i.i.i.i

if.then.i.i.i.i:                                  ; preds = %entry
  %sub.i.i.i.i.i = add i64 %1, 31
  %7 = inttoptr i64 %sub.i.i.i.i.i to ptr
  %8 = load i64, ptr %7, align 8
  %9 = inttoptr i64 %8 to ptr
  br label %_ZN4node6UnwrapINS_12_GLOBAL__N_111FSEventWrapEEEPT_N2v85LocalINS5_5ValueEEE.exit

if.end.i.i.i.i:                                   ; preds = %entry
  %call7.i.i.i.i = tail call noundef ptr @_ZN2v86Object38SlowGetAlignedPointerFromInternalFieldEi(ptr noundef nonnull align 1 dereferenceable(1) %add.ptr.i, i32 noundef 1) #15
  br label %_ZN4node6UnwrapINS_12_GLOBAL__N_111FSEventWrapEEEPT_N2v85LocalINS5_5ValueEEE.exit

_ZN4node6UnwrapINS_12_GLOBAL__N_111FSEventWrapEEEPT_N2v85LocalINS5_5ValueEEE.exit: ; preds = %if.then.i.i.i.i, %if.end.i.i.i.i
  %retval.i11.0.i.i.i = phi ptr [ %9, %if.then.i.i.i.i ], [ %call7.i.i.i.i, %if.end.i.i.i.i ]
  %cmp.not = icmp eq ptr %retval.i11.0.i.i.i, null
  br i1 %cmp.not, label %do.body13, label %do.end14

do.body13:                                        ; preds = %_ZN4node6UnwrapINS_12_GLOBAL__N_111FSEventWrapEEEPT_N2v85LocalINS5_5ValueEEE.exit
  tail call void @_ZN4node6AssertERKNS_13AssertionInfoE(ptr noundef nonnull align 8 dereferenceable(24) @_ZZN4node12_GLOBAL__N_111FSEventWrap14GetInitializedERKN2v820FunctionCallbackInfoINS2_5ValueEEEE4args) #15
  tail call void @abort() #16
  unreachable

do.end14:                                         ; preds = %_ZN4node6UnwrapINS_12_GLOBAL__N_111FSEventWrapEEEPT_N2v85LocalINS5_5ValueEEE.exit
  %10 = load ptr, ptr %args, align 8
  %state_.i = getelementptr inbounds i8, ptr %retval.i11.0.i.i.i, i64 56
  %11 = load i32, ptr %state_.i, align 8
  %12 = add i32 %11, -1
  %spec.select.i = icmp ult i32 %12, 2
  %. = select i1 %spec.select.i, i64 64, i64 56
  %arrayidx.i = getelementptr inbounds i8, ptr %10, i64 24
  %arrayidx.i.i = getelementptr inbounds i8, ptr %10, i64 8
  %13 = load ptr, ptr %arrayidx.i.i, align 8
  %14 = ptrtoint ptr %13 to i64
  %add.i.i.i = add i64 %14, 576
  %add1.i.i.i = add i64 %add.i.i.i, %.
  %15 = inttoptr i64 %add1.i.i.i to ptr
  %16 = load i64, ptr %15, align 8
  store i64 %16, ptr %arrayidx.i, align 8
  ret void
}